; Function Attrs: nounwind uwtable
define internal i32 @get_dh_dsa_payload_q(i32 noundef %0, ptr noundef captures(address_is_null) %1, ptr noundef %2) #0 {
  %4 = getelementptr inbounds nuw i8, ptr %2, i64 32
  %5 = load ptr, ptr %4, align 8, !tbaa !35
  %6 = tail call i32 @EVP_PKEY_get_base_id(ptr noundef %5) #8
  switch i32 %6, label %get_payload_bn.exit [
    i32 28, label %7
    i32 116, label %11
  ]

7:                                                ; preds = %3
  %8 = load ptr, ptr %4, align 8, !tbaa !35
  %9 = tail call ptr @EVP_PKEY_get0_DH(ptr noundef %8) #8
  %10 = tail call ptr @DH_get0_q(ptr noundef %9) #8
  br label %15

11:                                               ; preds = %3
  %12 = load ptr, ptr %4, align 8, !tbaa !35
  %13 = tail call ptr @EVP_PKEY_get0_DSA(ptr noundef %12) #8
  %14 = tail call ptr @DSA_get0_q(ptr noundef %13) #8
  br label %15

15:                                               ; preds = %11, %7
  %.0 = phi ptr [ %14, %11 ], [ %10, %7 ]
  %16 = icmp eq ptr %.0, null
  br i1 %16, label %get_payload_bn.exit, label %17

17:                                               ; preds = %15
  %18 = getelementptr inbounds nuw i8, ptr %2, i64 48
  %19 = load ptr, ptr %18, align 8, !tbaa !37
  %20 = getelementptr inbounds nuw i8, ptr %19, i64 8
  %21 = load i32, ptr %20, align 8, !tbaa !57
  %.not.i = icmp eq i32 %21, 2
  br i1 %.not.i, label %22, label %get_payload_bn.exit

22:                                               ; preds = %17
  store ptr %.0, ptr %4, align 8, !tbaa !35
  %23 = tail call i32 @default_fixup_args(i32 noundef %0, ptr noundef %1, ptr noundef nonnull %2)
  br label %get_payload_bn.exit

get_payload_bn.exit:                              ; preds = %3, %15, %17, %22
  %.0.i = phi i32 [ %23, %22 ], [ 0, %15 ], [ 0, %17 ], [ 0, %3 ]
  ret i32 %.0.i
}